target datalayout = "e-m:e-p270:32:32-p271:32:32-p272:64:64-i64:64-i128:128-f80:128-n8:16:32:64-S128"
target triple = "x86_64-pc-linux-gnu"

@.str.305 = private unnamed_addr constant [6 x i8] c"dummy\00", align 1

; Function Attrs: mustprogress uwtable
define dso_local void @_ZN7testing14InitGoogleTestEv() #4 {
  %1 = alloca i32, align 4
  %2 = alloca ptr, align 8
  %3 = alloca ptr, align 8
  %4 = alloca ptr, align 8
  call void @llvm.lifetime.start.p0(i64 4, ptr %1) #3
  store i32 1, ptr %1, align 4, !tbaa !17
  call void @llvm.lifetime.start.p0(i64 8, ptr %2) #3
  store ptr @.str.305, ptr %2, align 8, !tbaa !8
  call void @llvm.lifetime.start.p0(i64 8, ptr %3) #3
  store ptr @.str.305, ptr %3, align 8, !tbaa !8
  call void @llvm.lifetime.start.p0(i64 8, ptr %4) #3
  store ptr %3, ptr %4, align 8, !tbaa !372
  %5 = load ptr, ptr %4, align 8, !tbaa !372
  call void @_ZN7testing8internal18InitGoogleTestImplIcEEvPiPPT_(ptr noundef %1, ptr noundef %5)
  call void @llvm.lifetime.end.p0(i64 8, ptr %4) #3
  call void @llvm.lifetime.end.p0(i64 8, ptr %3) #3
  call void @llvm.lifetime.end.p0(i64 8, ptr %2) #3
  call void @llvm.lifetime.end.p0(i64 4, ptr %1) #3
  ret void
}