; Function Attrs: mustprogress uwtable
define dso_local void @_ZN7testing14InitGoogleTestEv() local_unnamed_addr #3 {
  %1 = alloca i32, align 4
  %2 = alloca ptr, align 8
  call void @llvm.lifetime.start.p0(i64 4, ptr nonnull %1) #58
  store i32 1, ptr %1, align 4, !tbaa !19
  call void @llvm.lifetime.start.p0(i64 8, ptr nonnull %2) #58
  store ptr @.str.305, ptr %2, align 8, !tbaa !453
  call void @_ZN7testing8internal18InitGoogleTestImplIcEEvPiPPT_(ptr noundef nonnull %1, ptr noundef nonnull %2)
  call void @llvm.lifetime.end.p0(i64 8, ptr nonnull %2) #58
  call void @llvm.lifetime.end.p0(i64 4, ptr nonnull %1) #58
  ret void
}